; Function Attrs: nounwind uwtable
define internal { i64, ptr } @f_sort_by_impl(ptr readnone captures(none) %0, i64 %1, ptr %2, i64 %3, ptr %4) #0 {
  %6 = alloca [15 x i8], align 1
  %7 = alloca [15 x i8], align 1
  %8 = tail call i32 @jv_get_kind(i64 %1, ptr %2) #14
  %9 = icmp eq i32 %8, 6
  br i1 %9, label %10, label %25

10:                                               ; preds = %5
  %11 = tail call i32 @jv_get_kind(i64 %3, ptr %4) #14
  %12 = icmp eq i32 %11, 6
  br i1 %12, label %13, label %25

13:                                               ; preds = %10
  %14 = tail call { i64, ptr } @jv_copy(i64 %1, ptr %2) #14
  %15 = extractvalue { i64, ptr } %14, 0
  %16 = extractvalue { i64, ptr } %14, 1
  %17 = tail call i32 @jv_array_length(i64 %15, ptr %16) #14
  %18 = tail call { i64, ptr } @jv_copy(i64 %3, ptr %4) #14
  %19 = extractvalue { i64, ptr } %18, 0
  %20 = extractvalue { i64, ptr } %18, 1
  %21 = tail call i32 @jv_array_length(i64 %19, ptr %20) #14
  %22 = icmp eq i32 %17, %21
  br i1 %22, label %23, label %25

23:                                               ; preds = %13
  %24 = tail call { i64, ptr } @jv_sort(i64 %1, ptr %2, i64 %3, ptr %4) #14
  br label %36

25:                                               ; preds = %13, %10, %5
  call void @llvm.lifetime.start.p0(i64 15, ptr nonnull %6) #14
  call void @llvm.lifetime.start.p0(i64 15, ptr nonnull %7) #14
  %26 = tail call i32 @jv_get_kind(i64 %1, ptr %2) #14
  %27 = tail call ptr @jv_kind_name(i32 noundef %26) #14
  %28 = tail call i32 @jv_get_kind(i64 %3, ptr %4) #14
  %29 = tail call ptr @jv_kind_name(i32 noundef %28) #14
  %30 = call ptr @jv_dump_string_trunc(i64 %1, ptr %2, ptr noundef nonnull %6, i64 noundef 15) #14
  %31 = call ptr @jv_dump_string_trunc(i64 %3, ptr %4, ptr noundef nonnull %7, i64 noundef 15) #14
  %32 = call { i64, ptr } (ptr, ...) @jv_string_fmt(ptr noundef nonnull @.str.8, ptr noundef %27, ptr noundef %30, ptr noundef %29, ptr noundef %31, ptr noundef nonnull @.str.171) #14
  %33 = extractvalue { i64, ptr } %32, 0
  %34 = extractvalue { i64, ptr } %32, 1
  %35 = call { i64, ptr } @jv_invalid_with_msg(i64 %33, ptr %34) #14
  call void @llvm.lifetime.end.p0(i64 15, ptr nonnull %7) #14
  call void @llvm.lifetime.end.p0(i64 15, ptr nonnull %6) #14
  br label %36

36:                                               ; preds = %25, %23
  %.pn = phi { i64, ptr } [ %24, %23 ], [ %35, %25 ]
  ret { i64, ptr } %.pn
}